target datalayout = "e-m:e-p270:32:32-p271:32:32-p272:64:64-i64:64-i128:128-f80:128-n8:16:32:64-S128"
target triple = "x86_64-pc-linux-gnu"

%struct.Aig_Man_t_ = type { ptr, ptr, ptr, ptr, ptr, ptr, ptr, %struct.Aig_Obj_t_, i32, i32, i32, i32, i32, i32, [7 x i32], i32, ptr, i32, ptr, i32, ptr, i32, i32, i32, ptr, i32, i32, i32, i32, i32, ptr, ptr, i32, ptr, ptr, i32, ptr, ptr, i32, i32, i32, ptr, ptr, ptr, ptr, ptr, ptr, ptr, ptr, ptr, ptr, ptr, ptr, ptr, ptr, i32, ptr, ptr, ptr, ptr, i32, i64, i64, i64, ptr, ptr }
%struct.Aig_Obj_t_ = type { %union.anon, ptr, ptr, i64, i32, i32, %union.anon.0 }
%union.anon = type { ptr }
%union.anon.0 = type { ptr }

@.str.21 = private unnamed_addr constant [67 x i8] c"Performing sequential verification using combinational A/B miter.\0A\00", align 1
@.str.22 = private unnamed_addr constant [24 x i8] c"Demitering has failed.\0A\00", align 1
@.str.23 = private unnamed_addr constant [65 x i8] c"After demitering AIGs have different number of flops. Quitting.\0A\00", align 1

; Function Attrs: inlinehint nounwind uwtable
define internal i32 @Aig_ManNodeNum(ptr noundef %0) #3 {
  %2 = alloca ptr, align 8
  store ptr %0, ptr %2, align 8, !tbaa !3
  %3 = load ptr, ptr %2, align 8, !tbaa !3
  %4 = getelementptr inbounds nuw %struct.Aig_Man_t_, ptr %3, i32 0, i32 14
  %5 = getelementptr inbounds [7 x i32], ptr %4, i64 0, i64 5
  %6 = load i32, ptr %5, align 4, !tbaa !14
  %7 = load ptr, ptr %2, align 8, !tbaa !3
  %8 = getelementptr inbounds nuw %struct.Aig_Man_t_, ptr %7, i32 0, i32 14
  %9 = getelementptr inbounds [7 x i32], ptr %8, i64 0, i64 6
  %10 = load i32, ptr %9, align 8, !tbaa !14
  %11 = add nsw i32 %6, %10
  ret i32 %11
}

; Function Attrs: inlinehint nounwind uwtable
define internal i32 @Aig_ManRegNum(ptr noundef %0) #3 {
  %2 = alloca ptr, align 8
  store ptr %0, ptr %2, align 8, !tbaa !3
  %3 = load ptr, ptr %2, align 8, !tbaa !3
  %4 = getelementptr inbounds nuw %struct.Aig_Man_t_, ptr %3, i32 0, i32 8
  %5 = load i32, ptr %4, align 8, !tbaa !56
  ret i32 %5
}

; Function Attrs: nounwind uwtable
define i32 @Ssw_SecSpecialMiter(ptr noundef %0, ptr noundef %1, i32 noundef %2, i32 noundef %3) #0 {
  %5 = alloca i32, align 4
  %6 = alloca ptr, align 8
  %7 = alloca ptr, align 8
  %8 = alloca i32, align 4
  %9 = alloca i32, align 4
  %10 = alloca ptr, align 8
  %11 = alloca ptr, align 8
  %12 = alloca i32, align 4
  %13 = alloca i32, align 4
  store ptr %0, ptr %6, align 8, !tbaa !3
  store ptr %1, ptr %7, align 8, !tbaa !3
  store i32 %2, ptr %8, align 4, !tbaa !14
  store i32 %3, ptr %9, align 4, !tbaa !14
  call void @llvm.lifetime.start.p0(i64 8, ptr %10) #10
  call void @llvm.lifetime.start.p0(i64 8, ptr %11) #10
  call void @llvm.lifetime.start.p0(i64 4, ptr %12) #10
  %14 = load i32, ptr %9, align 4, !tbaa !14
  %15 = icmp ne i32 %14, 0
  br i1 %15, label %16, label %18

16:                                               ; preds = %4
  %17 = call i32 (ptr, ...) @printf(ptr noundef @.str.21)
  br label %18

18:                                               ; preds = %16, %4
  %19 = load ptr, ptr %7, align 8, !tbaa !3
  %20 = icmp eq ptr %19, null
  br i1 %20, label %21, label %43

21:                                               ; preds = %18
  %22 = load i32, ptr %9, align 4, !tbaa !14
  %23 = icmp ne i32 %22, 0
  br i1 %23, label %24, label %26

24:                                               ; preds = %21
  %25 = load ptr, ptr %6, align 8, !tbaa !3
  call void @Aig_ManPrintStats(ptr noundef %25)
  br label %26

26:                                               ; preds = %24, %21
  %27 = load ptr, ptr %6, align 8, !tbaa !3
  %28 = call i32 @Saig_ManDemiterSimpleDiff(ptr noundef %27, ptr noundef %10, ptr noundef %11)
  %29 = icmp ne i32 %28, 0
  br i1 %29, label %32, label %30

30:                                               ; preds = %26
  %31 = call i32 (ptr, ...) @printf(ptr noundef @.str.22)
  store i32 -1, ptr %5, align 4
  store i32 1, ptr %13, align 4
  br label %80

32:                                               ; preds = %26
  %33 = load ptr, ptr %10, align 8, !tbaa !3
  %34 = call i32 @Aig_ManRegNum(ptr noundef %33)
  %35 = load ptr, ptr %11, align 8, !tbaa !3
  %36 = call i32 @Aig_ManRegNum(ptr noundef %35)
  %37 = icmp ne i32 %34, %36
  br i1 %37, label %38, label %42

38:                                               ; preds = %32
  %39 = load ptr, ptr %10, align 8, !tbaa !3
  call void @Aig_ManStop(ptr noundef %39)
  %40 = load ptr, ptr %11, align 8, !tbaa !3
  call void @Aig_ManStop(ptr noundef %40)
  %41 = call i32 (ptr, ...) @printf(ptr noundef @.str.23)
  store i32 -1, ptr %5, align 4
  store i32 1, ptr %13, align 4
  br label %80

42:                                               ; preds = %32
  br label %48

43:                                               ; preds = %18
  %44 = load ptr, ptr %6, align 8, !tbaa !3
  %45 = call ptr @Aig_ManDupSimple(ptr noundef %44)
  store ptr %45, ptr %10, align 8, !tbaa !3
  %46 = load ptr, ptr %7, align 8, !tbaa !3
  %47 = call ptr @Aig_ManDupSimple(ptr noundef %46)
  store ptr %47, ptr %11, align 8, !tbaa !3
  br label %48

48:                                               ; preds = %43, %42
  %49 = load i32, ptr %9, align 4, !tbaa !14
  %50 = icmp ne i32 %49, 0
  br i1 %50, label %51, label %56

51:                                               ; preds = %48
  %52 = load ptr, ptr %7, align 8, !tbaa !3
  %53 = icmp eq ptr %52, null
  br i1 %53, label %54, label %55

54:                                               ; preds = %51
  br label %55

55:                                               ; preds = %54, %51
  br label %56

56:                                               ; preds = %55, %48
  %57 = load ptr, ptr %10, align 8, !tbaa !3
  %58 = load ptr, ptr %11, align 8, !tbaa !3
  %59 = load i32, ptr %8, align 4, !tbaa !14
  %60 = load i32, ptr %9, align 4, !tbaa !14
  %61 = call i32 @Ssw_SecSpecial(ptr noundef %57, ptr noundef %58, i32 noundef %59, i32 noundef %60)
  store i32 %61, ptr %12, align 4, !tbaa !14
  %62 = load i32, ptr %12, align 4, !tbaa !14
  %63 = icmp ne i32 %62, 1
  br i1 %63, label %64, label %76

64:                                               ; preds = %56
  %65 = load ptr, ptr %10, align 8, !tbaa !3
  %66 = call i32 @Aig_ManNodeNum(ptr noundef %65)
  %67 = load ptr, ptr %11, align 8, !tbaa !3
  %68 = call i32 @Aig_ManNodeNum(ptr noundef %67)
  %69 = icmp sge i32 %66, %68
  br i1 %69, label %70, label %76

70:                                               ; preds = %64
  %71 = load ptr, ptr %11, align 8, !tbaa !3
  %72 = load ptr, ptr %10, align 8, !tbaa !3
  %73 = load i32, ptr %8, align 4, !tbaa !14
  %74 = load i32, ptr %9, align 4, !tbaa !14
  %75 = call i32 @Ssw_SecSpecial(ptr noundef %71, ptr noundef %72, i32 noundef %73, i32 noundef %74)
  store i32 %75, ptr %12, align 4, !tbaa !14
  br label %76

76:                                               ; preds = %70, %64, %56
  %77 = load ptr, ptr %10, align 8, !tbaa !3
  call void @Aig_ManStop(ptr noundef %77)
  %78 = load ptr, ptr %11, align 8, !tbaa !3
  call void @Aig_ManStop(ptr noundef %78)
  %79 = load i32, ptr %12, align 4, !tbaa !14
  store i32 %79, ptr %5, align 4
  store i32 1, ptr %13, align 4
  br label %80

80:                                               ; preds = %76, %38, %30
  call void @llvm.lifetime.end.p0(i64 4, ptr %12) #10
  call void @llvm.lifetime.end.p0(i64 8, ptr %11) #10
  call void @llvm.lifetime.end.p0(i64 8, ptr %10) #10
  %81 = load i32, ptr %5, align 4
  ret i32 %81
}