; Function Attrs: nounwind uwtable
define noundef i32 @Ssw_SecSpecialMiter(ptr noundef %0, ptr noundef %1, i32 noundef %2, i32 noundef %3) local_unnamed_addr #3 {
  %5 = alloca ptr, align 8
  %6 = alloca ptr, align 8
  call void @llvm.lifetime.start.p0(i64 8, ptr nonnull %5) #18
  call void @llvm.lifetime.start.p0(i64 8, ptr nonnull %6) #18
  %.not = icmp eq i32 %3, 0
  br i1 %.not, label %7, label %.thread

7:                                                ; preds = %4
  %8 = icmp eq ptr %1, null
  br i1 %8, label %11, label %20

.thread:                                          ; preds = %4
  %puts = tail call i32 @puts(ptr nonnull dereferenceable(1) @str.4)
  %9 = icmp eq ptr %1, null
  br i1 %9, label %10, label %20

10:                                               ; preds = %.thread
  tail call void @Aig_ManPrintStats(ptr noundef %0) #18
  br label %11

11:                                               ; preds = %7, %10
  %12 = call i32 @Saig_ManDemiterSimpleDiff(ptr noundef %0, ptr noundef nonnull %5, ptr noundef nonnull %6)
  %.not20 = icmp eq i32 %12, 0
  br i1 %.not20, label %13, label %14

13:                                               ; preds = %11
  %puts21 = tail call i32 @puts(ptr nonnull dereferenceable(1) @str.5)
  br label %37

14:                                               ; preds = %11
  %15 = load ptr, ptr %5, align 8, !tbaa !85
  %16 = getelementptr i8, ptr %15, i64 104
  %.val30 = load i32, ptr %16, align 8, !tbaa !41
  %17 = load ptr, ptr %6, align 8, !tbaa !85
  %18 = getelementptr i8, ptr %17, i64 104
  %.val29 = load i32, ptr %18, align 8, !tbaa !41
  %.not22 = icmp eq i32 %.val30, %.val29
  br i1 %.not22, label %23, label %19

19:                                               ; preds = %14
  tail call void @Aig_ManStop(ptr noundef nonnull %15) #18
  tail call void @Aig_ManStop(ptr noundef nonnull %17) #18
  %puts25 = tail call i32 @puts(ptr nonnull dereferenceable(1) @str.6)
  br label %37

20:                                               ; preds = %.thread, %7
  %21 = tail call ptr @Aig_ManDupSimple(ptr noundef %0) #18
  %22 = tail call ptr @Aig_ManDupSimple(ptr noundef nonnull %1) #18
  br label %23

23:                                               ; preds = %14, %20
  %24 = phi ptr [ %17, %14 ], [ %22, %20 ]
  %25 = phi ptr [ %15, %14 ], [ %21, %20 ]
  %26 = tail call i32 @Ssw_SecSpecial(ptr noundef %25, ptr noundef %24, i32 noundef %2, i32 noundef %3)
  %.not23 = icmp eq i32 %26, 1
  br i1 %.not23, label %36, label %27

27:                                               ; preds = %23
  %28 = getelementptr i8, ptr %25, i64 148
  %.val27 = load i32, ptr %28, align 4, !tbaa !23
  %29 = getelementptr i8, ptr %25, i64 152
  %.val28 = load i32, ptr %29, align 8, !tbaa !23
  %30 = add nsw i32 %.val28, %.val27
  %31 = getelementptr i8, ptr %24, i64 148
  %.val = load i32, ptr %31, align 4, !tbaa !23
  %32 = getelementptr i8, ptr %24, i64 152
  %.val26 = load i32, ptr %32, align 8, !tbaa !23
  %33 = add nsw i32 %.val26, %.val
  %.not24 = icmp slt i32 %30, %33
  br i1 %.not24, label %36, label %34

34:                                               ; preds = %27
  %35 = tail call i32 @Ssw_SecSpecial(ptr noundef nonnull %24, ptr noundef nonnull %25, i32 noundef %2, i32 noundef %3)
  br label %36

36:                                               ; preds = %34, %27, %23
  %.0 = phi i32 [ %35, %34 ], [ %26, %27 ], [ 1, %23 ]
  tail call void @Aig_ManStop(ptr noundef %25) #18
  tail call void @Aig_ManStop(ptr noundef %24) #18
  br label %37

37:                                               ; preds = %36, %19, %13
  %.015 = phi i32 [ -1, %19 ], [ %.0, %36 ], [ -1, %13 ]
  call void @llvm.lifetime.end.p0(i64 8, ptr nonnull %6) #18
  call void @llvm.lifetime.end.p0(i64 8, ptr nonnull %5) #18
  ret i32 %.015
}